target datalayout = "e-m:e-p270:32:32-p271:32:32-p272:64:64-i64:64-i128:128-f80:128-n8:16:32:64-S128"
target triple = "x86_64-pc-linux-gnu"

%"class.cv::bioinspired::BasicRetinaFilter" = type { %"class.cv::bioinspired::TemplateBuffer", %"class.std::valarray", i32, i32, %"class.std::valarray", %"class.std::valarray", %"class.std::valarray", float, float, float, float, float, float, float, float }
%"class.cv::bioinspired::TemplateBuffer" = type { ptr, %"class.std::valarray", i64, i64, i64, i64, i64 }
%"class.std::valarray" = type { i64, ptr }
%"class.cv::Range" = type { i32, i32 }
%"class.cv::ParallelLoopBody" = type { ptr }
%"class.cv::bioinspired::BasicRetinaFilter::Parallel_verticalAnticausalFilter_multGain" = type { %"class.cv::ParallelLoopBody", ptr, i32, i32, float, float }

@_ZTVN2cv16ParallelLoopBodyE = available_externally unnamed_addr constant { [5 x ptr] } { [5 x ptr] [ptr null, ptr @_ZTIN2cv16ParallelLoopBodyE, ptr @_ZN2cv16ParallelLoopBodyD1Ev, ptr @_ZN2cv16ParallelLoopBodyD0Ev, ptr @__cxa_pure_virtual] }, align 8

; Function Attrs: inlinehint mustprogress nounwind uwtable
define linkonce_odr hidden void @_ZN2cv16ParallelLoopBodyC2Ev(ptr noundef nonnull align 8 dereferenceable(8) %0) unnamed_addr #6 comdat align 2 {
  %2 = alloca ptr, align 8
  store ptr %0, ptr %2, align 8, !tbaa !144
  %3 = load ptr, ptr %2, align 8
  store ptr getelementptr inbounds inrange(-16, 24) ({ [5 x ptr] }, ptr @_ZTVN2cv16ParallelLoopBodyE, i32 0, i32 0, i32 2), ptr %3, align 8, !tbaa !27
  ret void
}

; Function Attrs: mustprogress nounwind uwtable
define linkonce_odr hidden void @_ZN2cv11bioinspired17BasicRetinaFilter42Parallel_verticalAnticausalFilter_multGainC2EPfjjff(ptr noundef nonnull align 8 dereferenceable(32) %0, ptr noundef %1, i32 noundef %2, i32 noundef %3, float noundef %4, float noundef %5) unnamed_addr #7 comdat align 2 {
  %7 = alloca ptr, align 8
  %8 = alloca ptr, align 8
  %9 = alloca i32, align 4
  %10 = alloca i32, align 4
  %11 = alloca float, align 4
  %12 = alloca float, align 4
  store ptr %0, ptr %7, align 8, !tbaa !105
  store ptr %1, ptr %8, align 8, !tbaa !49
  store i32 %2, ptr %9, align 4, !tbaa !8
  store i32 %3, ptr %10, align 4, !tbaa !8
  store float %4, ptr %11, align 4, !tbaa !26
  store float %5, ptr %12, align 4, !tbaa !26
  %13 = load ptr, ptr %7, align 8
  call void @_ZN2cv16ParallelLoopBodyC2Ev(ptr noundef nonnull align 8 dereferenceable(8) %13) #3
  store ptr getelementptr inbounds inrange(-16, 24) ({ [5 x ptr] }, ptr @_ZTVN2cv11bioinspired17BasicRetinaFilter42Parallel_verticalAnticausalFilter_multGainE, i32 0, i32 0, i32 2), ptr %13, align 8, !tbaa !27
  %14 = getelementptr inbounds nuw %"class.cv::bioinspired::BasicRetinaFilter::Parallel_verticalAnticausalFilter_multGain", ptr %13, i32 0, i32 1
  %15 = load ptr, ptr %8, align 8, !tbaa !49
  store ptr %15, ptr %14, align 8, !tbaa !107
  %16 = getelementptr inbounds nuw %"class.cv::bioinspired::BasicRetinaFilter::Parallel_verticalAnticausalFilter_multGain", ptr %13, i32 0, i32 2
  %17 = load i32, ptr %9, align 4, !tbaa !8
  store i32 %17, ptr %16, align 8, !tbaa !109
  %18 = getelementptr inbounds nuw %"class.cv::bioinspired::BasicRetinaFilter::Parallel_verticalAnticausalFilter_multGain", ptr %13, i32 0, i32 3
  %19 = load i32, ptr %10, align 4, !tbaa !8
  store i32 %19, ptr %18, align 4, !tbaa !110
  %20 = getelementptr inbounds nuw %"class.cv::bioinspired::BasicRetinaFilter::Parallel_verticalAnticausalFilter_multGain", ptr %13, i32 0, i32 4
  %21 = load float, ptr %11, align 4, !tbaa !26
  store float %21, ptr %20, align 8, !tbaa !111
  %22 = getelementptr inbounds nuw %"class.cv::bioinspired::BasicRetinaFilter::Parallel_verticalAnticausalFilter_multGain", ptr %13, i32 0, i32 5
  %23 = load float, ptr %12, align 4, !tbaa !26
  store float %23, ptr %22, align 4, !tbaa !112
  ret void
}

; Function Attrs: inlinehint mustprogress nounwind uwtable
define linkonce_odr hidden noundef i32 @_ZN2cv11bioinspired14TemplateBufferIfE12getNBcolumnsEv(ptr noundef nonnull align 8 dereferenceable(64) %0) #6 comdat align 2 {
  %2 = alloca ptr, align 8
  store ptr %0, ptr %2, align 8, !tbaa !23
  %3 = load ptr, ptr %2, align 8
  %4 = getelementptr inbounds nuw %"class.cv::bioinspired::TemplateBuffer", ptr %3, i32 0, i32 3
  %5 = load i64, ptr %4, align 8, !tbaa !30
  %6 = trunc i64 %5 to i32
  ret i32 %6
}

; Function Attrs: inlinehint mustprogress nounwind uwtable
define linkonce_odr hidden noundef i32 @_ZN2cv11bioinspired14TemplateBufferIfE9getNBrowsEv(ptr noundef nonnull align 8 dereferenceable(64) %0) #6 comdat align 2 {
  %2 = alloca ptr, align 8
  store ptr %0, ptr %2, align 8, !tbaa !23
  %3 = load ptr, ptr %2, align 8
  %4 = getelementptr inbounds nuw %"class.cv::bioinspired::TemplateBuffer", ptr %3, i32 0, i32 2
  %5 = load i64, ptr %4, align 8, !tbaa !29
  %6 = trunc i64 %5 to i32
  ret i32 %6
}

; Function Attrs: inlinehint mustprogress nounwind uwtable
define linkonce_odr hidden void @_ZN2cv5RangeC2Eii(ptr noundef nonnull align 4 dereferenceable(8) %0, i32 noundef %1, i32 noundef %2) unnamed_addr #6 comdat align 2 {
  %4 = alloca ptr, align 8
  %5 = alloca i32, align 4
  %6 = alloca i32, align 4
  store ptr %0, ptr %4, align 8, !tbaa !56
  store i32 %1, ptr %5, align 4, !tbaa !8
  store i32 %2, ptr %6, align 4, !tbaa !8
  %7 = load ptr, ptr %4, align 8
  %8 = getelementptr inbounds nuw %"class.cv::Range", ptr %7, i32 0, i32 0
  %9 = load i32, ptr %5, align 4, !tbaa !8
  store i32 %9, ptr %8, align 4, !tbaa !58
  %10 = getelementptr inbounds nuw %"class.cv::Range", ptr %7, i32 0, i32 1
  %11 = load i32, ptr %6, align 4, !tbaa !8
  store i32 %11, ptr %10, align 4, !tbaa !60
  ret void
}

; Function Attrs: mustprogress uwtable
define hidden void @_ZN2cv11bioinspired17BasicRetinaFilter34_verticalAnticausalFilter_multGainEPfjj(ptr noundef nonnull align 8 dereferenceable(168) %0, ptr noundef %1, i32 noundef %2, i32 noundef %3) #4 align 2 personality ptr @__gxx_personality_v0 {
  %5 = alloca ptr, align 8
  %6 = alloca ptr, align 8
  %7 = alloca i32, align 4
  %8 = alloca i32, align 4
  %9 = alloca %"class.cv::Range", align 4
  %10 = alloca %"class.cv::bioinspired::BasicRetinaFilter::Parallel_verticalAnticausalFilter_multGain", align 8
  %11 = alloca ptr, align 8
  %12 = alloca i32, align 4
  store ptr %0, ptr %5, align 8, !tbaa !3
  store ptr %1, ptr %6, align 8, !tbaa !49
  store i32 %2, ptr %7, align 4, !tbaa !8
  store i32 %3, ptr %8, align 4, !tbaa !8
  %13 = load ptr, ptr %5, align 8
  call void @llvm.lifetime.start.p0(i64 8, ptr %9) #3
  %14 = load i32, ptr %7, align 4, !tbaa !8
  %15 = load i32, ptr %8, align 4, !tbaa !8
  call void @_ZN2cv5RangeC2Eii(ptr noundef nonnull align 4 dereferenceable(8) %9, i32 noundef %14, i32 noundef %15)
  call void @llvm.lifetime.start.p0(i64 32, ptr %10) #3
  %16 = load ptr, ptr %6, align 8, !tbaa !49
  %17 = getelementptr inbounds nuw %"class.cv::bioinspired::BasicRetinaFilter", ptr %13, i32 0, i32 0
  %18 = call noundef i32 @_ZN2cv11bioinspired14TemplateBufferIfE9getNBrowsEv(ptr noundef nonnull align 8 dereferenceable(64) %17)
  %19 = getelementptr inbounds nuw %"class.cv::bioinspired::BasicRetinaFilter", ptr %13, i32 0, i32 0
  %20 = call noundef i32 @_ZN2cv11bioinspired14TemplateBufferIfE12getNBcolumnsEv(ptr noundef nonnull align 8 dereferenceable(64) %19)
  %21 = getelementptr inbounds nuw %"class.cv::bioinspired::BasicRetinaFilter", ptr %13, i32 0, i32 12
  %22 = load float, ptr %21, align 4, !tbaa !46
  %23 = getelementptr inbounds nuw %"class.cv::bioinspired::BasicRetinaFilter", ptr %13, i32 0, i32 14
  %24 = load float, ptr %23, align 4, !tbaa !53
  call void @_ZN2cv11bioinspired17BasicRetinaFilter42Parallel_verticalAnticausalFilter_multGainC2EPfjjff(ptr noundef nonnull align 8 dereferenceable(32) %10, ptr noundef %16, i32 noundef %18, i32 noundef %20, float noundef %22, float noundef %24)
  invoke void @_ZN2cv13parallel_for_ERKNS_5RangeERKNS_16ParallelLoopBodyEd(ptr noundef nonnull align 4 dereferenceable(8) %9, ptr noundef nonnull align 8 dereferenceable(8) %10, double noundef -1.000000e+00)
          to label %25 unwind label %26

25:                                               ; preds = %4
  call void @_ZN2cv16ParallelLoopBodyD2Ev(ptr noundef nonnull align 8 dereferenceable(32) %10) #3
  call void @llvm.lifetime.end.p0(i64 32, ptr %10) #3
  call void @llvm.lifetime.end.p0(i64 8, ptr %9) #3
  ret void

26:                                               ; preds = %4
  %27 = landingpad { ptr, i32 }
          cleanup
  %28 = extractvalue { ptr, i32 } %27, 0
  store ptr %28, ptr %11, align 8
  %29 = extractvalue { ptr, i32 } %27, 1
  store i32 %29, ptr %12, align 4
  call void @_ZN2cv16ParallelLoopBodyD2Ev(ptr noundef nonnull align 8 dereferenceable(32) %10) #3
  call void @llvm.lifetime.end.p0(i64 32, ptr %10) #3
  call void @llvm.lifetime.end.p0(i64 8, ptr %9) #3
  br label %30

30:                                               ; preds = %26
  %31 = load ptr, ptr %11, align 8
  %32 = load i32, ptr %12, align 4
  %33 = insertvalue { ptr, i32 } poison, ptr %31, 0
  %34 = insertvalue { ptr, i32 } %33, i32 %32, 1
  resume { ptr, i32 } %34
}