; Function Attrs: mustprogress uwtable
define hidden void @_ZN2cv11bioinspired17BasicRetinaFilter34_verticalAnticausalFilter_multGainEPfjj(ptr noundef nonnull readonly align 8 captures(none) dereferenceable(168) %0, ptr noundef %1, i32 noundef %2, i32 noundef %3) local_unnamed_addr #3 align 2 personality ptr @__gxx_personality_v0 {
  %5 = alloca %"class.cv::Range", align 4
  %6 = alloca %"class.cv::bioinspired::BasicRetinaFilter::Parallel_verticalAnticausalFilter_multGain", align 8
  call void @llvm.lifetime.start.p0(i64 8, ptr nonnull %5) #19
  store i32 %2, ptr %5, align 4, !tbaa !71
  %7 = getelementptr inbounds nuw i8, ptr %5, i64 4
  store i32 %3, ptr %7, align 4, !tbaa !73
  call void @llvm.lifetime.start.p0(i64 32, ptr nonnull %6) #19
  %8 = getelementptr inbounds nuw i8, ptr %0, i64 24
  %9 = load i64, ptr %8, align 8, !tbaa !15
  %10 = trunc i64 %9 to i32
  %11 = getelementptr inbounds nuw i8, ptr %0, i64 32
  %12 = load i64, ptr %11, align 8, !tbaa !17
  %13 = trunc i64 %12 to i32
  %14 = getelementptr inbounds nuw i8, ptr %0, i64 156
  %15 = load float, ptr %14, align 4, !tbaa !65
  %16 = getelementptr inbounds nuw i8, ptr %0, i64 164
  %17 = load float, ptr %16, align 4, !tbaa !83
  store ptr getelementptr inbounds nuw inrange(-16, 24) (i8, ptr @_ZTVN2cv11bioinspired17BasicRetinaFilter42Parallel_verticalAnticausalFilter_multGainE, i64 16), ptr %6, align 8, !tbaa !13
  %18 = getelementptr inbounds nuw i8, ptr %6, i64 8
  store ptr %1, ptr %18, align 8, !tbaa !102
  %19 = getelementptr inbounds nuw i8, ptr %6, i64 16
  store i32 %10, ptr %19, align 8, !tbaa !104
  %20 = getelementptr inbounds nuw i8, ptr %6, i64 20
  store i32 %13, ptr %20, align 4, !tbaa !105
  %21 = getelementptr inbounds nuw i8, ptr %6, i64 24
  store float %15, ptr %21, align 8, !tbaa !106
  %22 = getelementptr inbounds nuw i8, ptr %6, i64 28
  store float %17, ptr %22, align 4, !tbaa !107
  invoke void @_ZN2cv13parallel_for_ERKNS_5RangeERKNS_16ParallelLoopBodyEd(ptr noundef nonnull align 4 dereferenceable(8) %5, ptr noundef nonnull align 8 dereferenceable(8) %6, double noundef -1.000000e+00)
          to label %23 unwind label %24

23:                                               ; preds = %4
  call void @_ZN2cv16ParallelLoopBodyD2Ev(ptr noundef nonnull align 8 dereferenceable(32) %6) #19
  call void @llvm.lifetime.end.p0(i64 32, ptr nonnull %6) #19
  call void @llvm.lifetime.end.p0(i64 8, ptr nonnull %5) #19
  ret void

24:                                               ; preds = %4
  %25 = landingpad { ptr, i32 }
          cleanup
  call void @_ZN2cv16ParallelLoopBodyD2Ev(ptr noundef nonnull align 8 dereferenceable(32) %6) #19
  call void @llvm.lifetime.end.p0(i64 32, ptr nonnull %6) #19
  call void @llvm.lifetime.end.p0(i64 8, ptr nonnull %5) #19
  resume { ptr, i32 } %25
}